target datalayout = "e-m:e-p270:32:32-p271:32:32-p272:64:64-i64:64-i128:128-f80:128-n8:16:32:64-S128"
target triple = "x86_64-pc-linux-gnu"

%class.ShenandoahRegionPartitions = type { i64, i64, ptr, [2 x %class.ShenandoahSimpleBitMap], [2 x i64], [2 x i64], [2 x i64], [2 x i64], [2 x i64], [2 x i64], [2 x i64] }
%class.ShenandoahSimpleBitMap = type { i64, i64, ptr }

; Function Attrs: mustprogress nounwind uwtable
define linkonce_odr hidden void @_ZN26ShenandoahRegionPartitions36expand_interval_if_boundary_modifiedE28ShenandoahFreeSetPartitionIdlm(ptr noundef nonnull align 8 dereferenceable(184) %0, i8 noundef zeroext %1, i64 noundef %2, i64 noundef %3) #1 comdat align 2 {
  %5 = alloca ptr, align 8
  %6 = alloca i8, align 1
  %7 = alloca i64, align 8
  %8 = alloca i64, align 8
  store ptr %0, ptr %5, align 8
  store i8 %1, ptr %6, align 1
  store i64 %2, ptr %7, align 8
  store i64 %3, ptr %8, align 8
  %9 = load ptr, ptr %5, align 8
  %10 = getelementptr inbounds %class.ShenandoahRegionPartitions, ptr %9, i32 0, i32 4
  %11 = load i8, ptr %6, align 1
  %12 = zext i8 %11 to i32
  %13 = sext i32 %12 to i64
  %14 = getelementptr inbounds [2 x i64], ptr %10, i64 0, i64 %13
  %15 = load i64, ptr %14, align 8
  %16 = load i64, ptr %7, align 8
  %17 = icmp sgt i64 %15, %16
  br i1 %17, label %18, label %25

18:                                               ; preds = %4
  %19 = load i64, ptr %7, align 8
  %20 = getelementptr inbounds %class.ShenandoahRegionPartitions, ptr %9, i32 0, i32 4
  %21 = load i8, ptr %6, align 1
  %22 = zext i8 %21 to i32
  %23 = sext i32 %22 to i64
  %24 = getelementptr inbounds [2 x i64], ptr %20, i64 0, i64 %23
  store i64 %19, ptr %24, align 8
  br label %25

25:                                               ; preds = %18, %4
  %26 = getelementptr inbounds %class.ShenandoahRegionPartitions, ptr %9, i32 0, i32 5
  %27 = load i8, ptr %6, align 1
  %28 = zext i8 %27 to i32
  %29 = sext i32 %28 to i64
  %30 = getelementptr inbounds [2 x i64], ptr %26, i64 0, i64 %29
  %31 = load i64, ptr %30, align 8
  %32 = load i64, ptr %7, align 8
  %33 = icmp slt i64 %31, %32
  br i1 %33, label %34, label %41

34:                                               ; preds = %25
  %35 = load i64, ptr %7, align 8
  %36 = getelementptr inbounds %class.ShenandoahRegionPartitions, ptr %9, i32 0, i32 5
  %37 = load i8, ptr %6, align 1
  %38 = zext i8 %37 to i32
  %39 = sext i32 %38 to i64
  %40 = getelementptr inbounds [2 x i64], ptr %36, i64 0, i64 %39
  store i64 %35, ptr %40, align 8
  br label %41

41:                                               ; preds = %34, %25
  %42 = load i64, ptr %8, align 8
  %43 = getelementptr inbounds %class.ShenandoahRegionPartitions, ptr %9, i32 0, i32 1
  %44 = load i64, ptr %43, align 8
  %45 = icmp eq i64 %42, %44
  br i1 %45, label %46, label %79

46:                                               ; preds = %41
  %47 = getelementptr inbounds %class.ShenandoahRegionPartitions, ptr %9, i32 0, i32 6
  %48 = load i8, ptr %6, align 1
  %49 = zext i8 %48 to i32
  %50 = sext i32 %49 to i64
  %51 = getelementptr inbounds [2 x i64], ptr %47, i64 0, i64 %50
  %52 = load i64, ptr %51, align 8
  %53 = load i64, ptr %7, align 8
  %54 = icmp sgt i64 %52, %53
  br i1 %54, label %55, label %62

55:                                               ; preds = %46
  %56 = load i64, ptr %7, align 8
  %57 = getelementptr inbounds %class.ShenandoahRegionPartitions, ptr %9, i32 0, i32 6
  %58 = load i8, ptr %6, align 1
  %59 = zext i8 %58 to i32
  %60 = sext i32 %59 to i64
  %61 = getelementptr inbounds [2 x i64], ptr %57, i64 0, i64 %60
  store i64 %56, ptr %61, align 8
  br label %62

62:                                               ; preds = %55, %46
  %63 = getelementptr inbounds %class.ShenandoahRegionPartitions, ptr %9, i32 0, i32 7
  %64 = load i8, ptr %6, align 1
  %65 = zext i8 %64 to i32
  %66 = sext i32 %65 to i64
  %67 = getelementptr inbounds [2 x i64], ptr %63, i64 0, i64 %66
  %68 = load i64, ptr %67, align 8
  %69 = load i64, ptr %7, align 8
  %70 = icmp slt i64 %68, %69
  br i1 %70, label %71, label %78

71:                                               ; preds = %62
  %72 = load i64, ptr %7, align 8
  %73 = getelementptr inbounds %class.ShenandoahRegionPartitions, ptr %9, i32 0, i32 7
  %74 = load i8, ptr %6, align 1
  %75 = zext i8 %74 to i32
  %76 = sext i32 %75 to i64
  %77 = getelementptr inbounds [2 x i64], ptr %73, i64 0, i64 %76
  store i64 %72, ptr %77, align 8
  br label %78

78:                                               ; preds = %71, %62
  br label %79

79:                                               ; preds = %78, %41
  ret void
}

; Function Attrs: mustprogress nounwind uwtable
define linkonce_odr hidden void @_ZN22ShenandoahSimpleBitMap7set_bitEl(ptr noundef nonnull align 8 dereferenceable(24) %0, i64 noundef %1) #1 comdat align 2 {
  %3 = alloca ptr, align 8
  %4 = alloca i64, align 8
  %5 = alloca i64, align 8
  %6 = alloca i64, align 8
  %7 = alloca i64, align 8
  store ptr %0, ptr %3, align 8
  store i64 %1, ptr %4, align 8
  %8 = load ptr, ptr %3, align 8
  %9 = load i64, ptr %4, align 8
  %10 = ashr i64 %9, 6
  store i64 %10, ptr %5, align 8
  %11 = load i64, ptr %4, align 8
  %12 = and i64 %11, 63
  store i64 %12, ptr %6, align 8
  %13 = load i64, ptr %6, align 8
  %14 = icmp uge i64 %13, 64
  br i1 %14, label %15, label %16

15:                                               ; preds = %2
  br label %19

16:                                               ; preds = %2
  %17 = load i64, ptr %6, align 8
  %18 = shl i64 1, %17
  br label %19

19:                                               ; preds = %16, %15
  %20 = phi i64 [ 0, %15 ], [ %18, %16 ]
  store i64 %20, ptr %7, align 8
  %21 = load i64, ptr %7, align 8
  %22 = getelementptr inbounds %class.ShenandoahSimpleBitMap, ptr %8, i32 0, i32 2
  %23 = load ptr, ptr %22, align 8
  %24 = load i64, ptr %5, align 8
  %25 = getelementptr inbounds i64, ptr %23, i64 %24
  %26 = load i64, ptr %25, align 8
  %27 = or i64 %26, %21
  store i64 %27, ptr %25, align 8
  ret void
}

; Function Attrs: mustprogress nounwind uwtable
define hidden void @_ZN26ShenandoahRegionPartitions9make_freeEl28ShenandoahFreeSetPartitionIdm(ptr noundef nonnull align 8 dereferenceable(184) %0, i64 noundef %1, i8 noundef zeroext %2, i64 noundef %3) #1 align 2 {
  %5 = alloca ptr, align 8
  %6 = alloca i64, align 8
  %7 = alloca i8, align 1
  %8 = alloca i64, align 8
  store ptr %0, ptr %5, align 8
  store i64 %1, ptr %6, align 8
  store i8 %2, ptr %7, align 1
  store i64 %3, ptr %8, align 8
  %9 = load ptr, ptr %5, align 8
  %10 = getelementptr inbounds %class.ShenandoahRegionPartitions, ptr %9, i32 0, i32 3
  %11 = load i8, ptr %7, align 1
  %12 = zext i8 %11 to i32
  %13 = sext i32 %12 to i64
  %14 = getelementptr inbounds [2 x %class.ShenandoahSimpleBitMap], ptr %10, i64 0, i64 %13
  %15 = load i64, ptr %6, align 8
  call void @_ZN22ShenandoahSimpleBitMap7set_bitEl(ptr noundef nonnull align 8 dereferenceable(24) %14, i64 noundef %15)
  %16 = getelementptr inbounds %class.ShenandoahRegionPartitions, ptr %9, i32 0, i32 1
  %17 = load i64, ptr %16, align 8
  %18 = getelementptr inbounds %class.ShenandoahRegionPartitions, ptr %9, i32 0, i32 8
  %19 = load i8, ptr %7, align 1
  %20 = zext i8 %19 to i32
  %21 = sext i32 %20 to i64
  %22 = getelementptr inbounds [2 x i64], ptr %18, i64 0, i64 %21
  %23 = load i64, ptr %22, align 8
  %24 = add i64 %23, %17
  store i64 %24, ptr %22, align 8
  %25 = getelementptr inbounds %class.ShenandoahRegionPartitions, ptr %9, i32 0, i32 1
  %26 = load i64, ptr %25, align 8
  %27 = load i64, ptr %8, align 8
  %28 = sub i64 %26, %27
  %29 = getelementptr inbounds %class.ShenandoahRegionPartitions, ptr %9, i32 0, i32 9
  %30 = load i8, ptr %7, align 1
  %31 = zext i8 %30 to i32
  %32 = sext i32 %31 to i64
  %33 = getelementptr inbounds [2 x i64], ptr %29, i64 0, i64 %32
  %34 = load i64, ptr %33, align 8
  %35 = add i64 %34, %28
  store i64 %35, ptr %33, align 8
  %36 = load i8, ptr %7, align 1
  %37 = load i64, ptr %6, align 8
  %38 = load i64, ptr %8, align 8
  call void @_ZN26ShenandoahRegionPartitions36expand_interval_if_boundary_modifiedE28ShenandoahFreeSetPartitionIdlm(ptr noundef nonnull align 8 dereferenceable(184) %9, i8 noundef zeroext %36, i64 noundef %37, i64 noundef %38)
  %39 = getelementptr inbounds %class.ShenandoahRegionPartitions, ptr %9, i32 0, i32 10
  %40 = load i8, ptr %7, align 1
  %41 = zext i8 %40 to i32
  %42 = sext i32 %41 to i64
  %43 = getelementptr inbounds [2 x i64], ptr %39, i64 0, i64 %42
  %44 = load i64, ptr %43, align 8
  %45 = add i64 %44, 1
  store i64 %45, ptr %43, align 8
  ret void
}