; Function Attrs: mustprogress nofree norecurse nosync nounwind willreturn memory(readwrite, inaccessiblemem: none) uwtable
define hidden void @_ZN26ShenandoahRegionPartitions9make_freeEl28ShenandoahFreeSetPartitionIdm(ptr nocapture noundef nonnull align 8 dereferenceable(184) %0, i64 noundef %1, i8 noundef zeroext %2, i64 noundef %3) local_unnamed_addr #4 align 2 {
  %5 = getelementptr inbounds i8, ptr %0, i64 24
  %6 = zext i8 %2 to i64
  %7 = ashr i64 %1, 6
  %8 = and i64 %1, 63
  %9 = shl nuw i64 1, %8
  %10 = getelementptr inbounds [2 x %class.ShenandoahSimpleBitMap], ptr %5, i64 0, i64 %6, i32 2
  %11 = load ptr, ptr %10, align 8
  %12 = getelementptr inbounds i64, ptr %11, i64 %7
  %13 = load i64, ptr %12, align 8
  %14 = or i64 %13, %9
  store i64 %14, ptr %12, align 8
  %15 = getelementptr inbounds i8, ptr %0, i64 8
  %16 = load i64, ptr %15, align 8
  %17 = getelementptr inbounds i8, ptr %0, i64 136
  %18 = getelementptr inbounds [2 x i64], ptr %17, i64 0, i64 %6
  %19 = load i64, ptr %18, align 8
  %20 = add i64 %19, %16
  store i64 %20, ptr %18, align 8
  %21 = sub i64 %16, %3
  %22 = getelementptr inbounds i8, ptr %0, i64 152
  %23 = getelementptr inbounds [2 x i64], ptr %22, i64 0, i64 %6
  %24 = load i64, ptr %23, align 8
  %25 = add i64 %21, %24
  store i64 %25, ptr %23, align 8
  %26 = getelementptr inbounds i8, ptr %0, i64 72
  %27 = getelementptr inbounds [2 x i64], ptr %26, i64 0, i64 %6
  %28 = load i64, ptr %27, align 8
  %29 = icmp sgt i64 %28, %1
  br i1 %29, label %30, label %31

30:                                               ; preds = %4
  store i64 %1, ptr %27, align 8
  br label %31

31:                                               ; preds = %30, %4
  %32 = getelementptr inbounds i8, ptr %0, i64 88
  %33 = getelementptr inbounds [2 x i64], ptr %32, i64 0, i64 %6
  %34 = load i64, ptr %33, align 8
  %35 = icmp slt i64 %34, %1
  br i1 %35, label %36, label %37

36:                                               ; preds = %31
  store i64 %1, ptr %33, align 8
  br label %37

37:                                               ; preds = %36, %31
  %38 = icmp eq i64 %16, %3
  br i1 %38, label %39, label %_ZN26ShenandoahRegionPartitions36expand_interval_if_boundary_modifiedE28ShenandoahFreeSetPartitionIdlm.exit

39:                                               ; preds = %37
  %40 = getelementptr inbounds i8, ptr %0, i64 104
  %41 = getelementptr inbounds [2 x i64], ptr %40, i64 0, i64 %6
  %42 = load i64, ptr %41, align 8
  %43 = icmp sgt i64 %42, %1
  br i1 %43, label %44, label %45

44:                                               ; preds = %39
  store i64 %1, ptr %41, align 8
  br label %45

45:                                               ; preds = %44, %39
  %46 = getelementptr inbounds i8, ptr %0, i64 120
  %47 = getelementptr inbounds [2 x i64], ptr %46, i64 0, i64 %6
  %48 = load i64, ptr %47, align 8
  %49 = icmp slt i64 %48, %1
  br i1 %49, label %50, label %_ZN26ShenandoahRegionPartitions36expand_interval_if_boundary_modifiedE28ShenandoahFreeSetPartitionIdlm.exit

50:                                               ; preds = %45
  store i64 %1, ptr %47, align 8
  br label %_ZN26ShenandoahRegionPartitions36expand_interval_if_boundary_modifiedE28ShenandoahFreeSetPartitionIdlm.exit

_ZN26ShenandoahRegionPartitions36expand_interval_if_boundary_modifiedE28ShenandoahFreeSetPartitionIdlm.exit: ; preds = %37, %45, %50
  %51 = getelementptr inbounds i8, ptr %0, i64 168
  %52 = getelementptr inbounds [2 x i64], ptr %51, i64 0, i64 %6
  %53 = load i64, ptr %52, align 8
  %54 = add i64 %53, 1
  store i64 %54, ptr %52, align 8
  ret void
}